target datalayout = "e-m:e-p270:32:32-p271:32:32-p272:64:64-i64:64-i128:128-f80:128-n8:16:32:64-S128"
target triple = "x86_64-pc-linux-gnu"

%struct.archive_write = type { %struct.archive, i32, i64, i64, ptr, i64, ptr, ptr, ptr, ptr, ptr, i32, i32, ptr, ptr, ptr, ptr, ptr, ptr, ptr, ptr, ptr, ptr, ptr, ptr, ptr, ptr }
%struct.archive = type { i32, i32, ptr, i32, ptr, i32, i32, ptr, %struct.archive_string, ptr, i32, i32, ptr, ptr, i64, i64, i64, i8, i64 }
%struct.archive_string = type { ptr, i64, i64 }
%struct.mtree_writer = type { ptr, ptr, ptr, %struct.archive_string, %struct.mtree_chain, %struct.archive_string, %struct.archive_string, i32, i64, %struct.anon, %struct.att_counter_set, i32, i32, i32, i32, i64, ptr, ptr, ptr, ptr, ptr, ptr, i32, i32, i32, i32 }
%struct.mtree_chain = type { ptr, ptr }
%struct.anon = type { i32, i32, i32, i64, i64, i32, i64, i64 }
%struct.att_counter_set = type { ptr, ptr, ptr, ptr }

@.str.1 = private unnamed_addr constant [39 x i8] c"archive_write_set_format_mtree_classic\00", align 1
@.str.2 = private unnamed_addr constant [26 x i8] c"Can't allocate mtree data\00", align 1
@.str.3 = private unnamed_addr constant [6 x i8] c"mtree\00", align 1

; Function Attrs: nounwind uwtable
define internal void @mtree_entry_register_init(ptr noundef %0) #0 {
  %2 = alloca ptr, align 8
  store ptr %0, ptr %2, align 8, !tbaa !23
  %3 = load ptr, ptr %2, align 8, !tbaa !23
  %4 = getelementptr inbounds nuw %struct.mtree_writer, ptr %3, i32 0, i32 4
  %5 = getelementptr inbounds nuw %struct.mtree_chain, ptr %4, i32 0, i32 0
  store ptr null, ptr %5, align 8, !tbaa !55
  %6 = load ptr, ptr %2, align 8, !tbaa !23
  %7 = getelementptr inbounds nuw %struct.mtree_writer, ptr %6, i32 0, i32 4
  %8 = getelementptr inbounds nuw %struct.mtree_chain, ptr %7, i32 0, i32 0
  %9 = load ptr, ptr %2, align 8, !tbaa !23
  %10 = getelementptr inbounds nuw %struct.mtree_writer, ptr %9, i32 0, i32 4
  %11 = getelementptr inbounds nuw %struct.mtree_chain, ptr %10, i32 0, i32 1
  store ptr %8, ptr %11, align 8, !tbaa !56
  ret void
}

; Function Attrs: nounwind uwtable
define internal i32 @archive_write_set_format_mtree_default(ptr noundef %0, ptr noundef %1) #0 {
  %3 = alloca i32, align 4
  %4 = alloca ptr, align 8
  %5 = alloca ptr, align 8
  %6 = alloca ptr, align 8
  %7 = alloca ptr, align 8
  %8 = alloca i32, align 4
  %9 = alloca i32, align 4
  store ptr %0, ptr %4, align 8, !tbaa !4
  store ptr %1, ptr %5, align 8, !tbaa !9
  call void @llvm.lifetime.start.p0(i64 8, ptr %6) #9
  %10 = load ptr, ptr %4, align 8, !tbaa !4
  store ptr %10, ptr %6, align 8, !tbaa !11
  call void @llvm.lifetime.start.p0(i64 8, ptr %7) #9
  br label %11

11:                                               ; preds = %2
  call void @llvm.lifetime.start.p0(i64 4, ptr %8) #9
  %12 = load ptr, ptr %4, align 8, !tbaa !4
  %13 = load ptr, ptr %5, align 8, !tbaa !9
  %14 = call i32 @__archive_check_magic(ptr noundef %12, i32 noundef -1329217314, i32 noundef 1, ptr noundef %13)
  store i32 %14, ptr %8, align 4, !tbaa !13
  %15 = load i32, ptr %8, align 4, !tbaa !13
  %16 = icmp eq i32 %15, -30
  br i1 %16, label %17, label %18

17:                                               ; preds = %11
  store i32 -30, ptr %3, align 4
  store i32 1, ptr %9, align 4
  br label %19

18:                                               ; preds = %11
  store i32 0, ptr %9, align 4
  br label %19

19:                                               ; preds = %18, %17
  call void @llvm.lifetime.end.p0(i64 4, ptr %8) #9
  %20 = load i32, ptr %9, align 4
  switch i32 %20, label %101 [
    i32 0, label %21
  ]

21:                                               ; preds = %19
  br label %22

22:                                               ; preds = %21
  br label %23

23:                                               ; preds = %22
  %24 = load ptr, ptr %6, align 8, !tbaa !11
  %25 = getelementptr inbounds nuw %struct.archive_write, ptr %24, i32 0, i32 23
  %26 = load ptr, ptr %25, align 8, !tbaa !15
  %27 = icmp ne ptr %26, null
  br i1 %27, label %28, label %34

28:                                               ; preds = %23
  %29 = load ptr, ptr %6, align 8, !tbaa !11
  %30 = getelementptr inbounds nuw %struct.archive_write, ptr %29, i32 0, i32 23
  %31 = load ptr, ptr %30, align 8, !tbaa !15
  %32 = load ptr, ptr %6, align 8, !tbaa !11
  %33 = call i32 %31(ptr noundef %32)
  br label %34

34:                                               ; preds = %28, %23
  %35 = call noalias ptr @calloc(i64 noundef 1, i64 noundef 304) #10
  store ptr %35, ptr %7, align 8, !tbaa !23
  %36 = icmp eq ptr %35, null
  br i1 %36, label %37, label %40

37:                                               ; preds = %34
  %38 = load ptr, ptr %6, align 8, !tbaa !11
  %39 = getelementptr inbounds nuw %struct.archive_write, ptr %38, i32 0, i32 0
  call void (ptr, i32, ptr, ...) @archive_set_error(ptr noundef %39, i32 noundef 12, ptr noundef @.str.2)
  store i32 -30, ptr %3, align 4
  store i32 1, ptr %9, align 4
  br label %101

40:                                               ; preds = %34
  %41 = load ptr, ptr %7, align 8, !tbaa !23
  %42 = getelementptr inbounds nuw %struct.mtree_writer, ptr %41, i32 0, i32 0
  store ptr null, ptr %42, align 8, !tbaa !25
  %43 = load ptr, ptr %7, align 8, !tbaa !23
  %44 = getelementptr inbounds nuw %struct.mtree_writer, ptr %43, i32 0, i32 7
  store i32 1, ptr %44, align 8, !tbaa !34
  %45 = load ptr, ptr %7, align 8, !tbaa !23
  %46 = getelementptr inbounds nuw %struct.mtree_writer, ptr %45, i32 0, i32 9
  call void @llvm.memset.p0.i64(ptr align 8 %46, i8 0, i64 56, i1 false)
  %47 = load ptr, ptr %7, align 8, !tbaa !23
  %48 = getelementptr inbounds nuw %struct.mtree_writer, ptr %47, i32 0, i32 22
  store i32 4032058, ptr %48, align 8, !tbaa !35
  %49 = load ptr, ptr %7, align 8, !tbaa !23
  %50 = getelementptr inbounds nuw %struct.mtree_writer, ptr %49, i32 0, i32 23
  store i32 0, ptr %50, align 4, !tbaa !36
  %51 = load ptr, ptr %7, align 8, !tbaa !23
  %52 = getelementptr inbounds nuw %struct.mtree_writer, ptr %51, i32 0, i32 24
  store i32 0, ptr %52, align 8, !tbaa !37
  br label %53

53:                                               ; preds = %40
  %54 = load ptr, ptr %7, align 8, !tbaa !23
  %55 = getelementptr inbounds nuw %struct.mtree_writer, ptr %54, i32 0, i32 5
  %56 = getelementptr inbounds nuw %struct.archive_string, ptr %55, i32 0, i32 0
  store ptr null, ptr %56, align 8, !tbaa !38
  %57 = load ptr, ptr %7, align 8, !tbaa !23
  %58 = getelementptr inbounds nuw %struct.mtree_writer, ptr %57, i32 0, i32 5
  %59 = getelementptr inbounds nuw %struct.archive_string, ptr %58, i32 0, i32 1
  store i64 0, ptr %59, align 8, !tbaa !39
  %60 = load ptr, ptr %7, align 8, !tbaa !23
  %61 = getelementptr inbounds nuw %struct.mtree_writer, ptr %60, i32 0, i32 5
  %62 = getelementptr inbounds nuw %struct.archive_string, ptr %61, i32 0, i32 2
  store i64 0, ptr %62, align 8, !tbaa !40
  br label %63

63:                                               ; preds = %53
  br label %64

64:                                               ; preds = %63
  br label %65

65:                                               ; preds = %64
  %66 = load ptr, ptr %7, align 8, !tbaa !23
  %67 = getelementptr inbounds nuw %struct.mtree_writer, ptr %66, i32 0, i32 6
  %68 = getelementptr inbounds nuw %struct.archive_string, ptr %67, i32 0, i32 0
  store ptr null, ptr %68, align 8, !tbaa !41
  %69 = load ptr, ptr %7, align 8, !tbaa !23
  %70 = getelementptr inbounds nuw %struct.mtree_writer, ptr %69, i32 0, i32 6
  %71 = getelementptr inbounds nuw %struct.archive_string, ptr %70, i32 0, i32 1
  store i64 0, ptr %71, align 8, !tbaa !42
  %72 = load ptr, ptr %7, align 8, !tbaa !23
  %73 = getelementptr inbounds nuw %struct.mtree_writer, ptr %72, i32 0, i32 6
  %74 = getelementptr inbounds nuw %struct.archive_string, ptr %73, i32 0, i32 2
  store i64 0, ptr %74, align 8, !tbaa !43
  br label %75

75:                                               ; preds = %65
  br label %76

76:                                               ; preds = %75
  %77 = load ptr, ptr %7, align 8, !tbaa !23
  call void @mtree_entry_register_init(ptr noundef %77)
  %78 = load ptr, ptr %7, align 8, !tbaa !23
  %79 = load ptr, ptr %6, align 8, !tbaa !11
  %80 = getelementptr inbounds nuw %struct.archive_write, ptr %79, i32 0, i32 15
  store ptr %78, ptr %80, align 8, !tbaa !44
  %81 = load ptr, ptr %6, align 8, !tbaa !11
  %82 = getelementptr inbounds nuw %struct.archive_write, ptr %81, i32 0, i32 23
  store ptr @archive_write_mtree_free, ptr %82, align 8, !tbaa !15
  %83 = load ptr, ptr %6, align 8, !tbaa !11
  %84 = getelementptr inbounds nuw %struct.archive_write, ptr %83, i32 0, i32 16
  store ptr @.str.3, ptr %84, align 8, !tbaa !45
  %85 = load ptr, ptr %6, align 8, !tbaa !11
  %86 = getelementptr inbounds nuw %struct.archive_write, ptr %85, i32 0, i32 18
  store ptr @archive_write_mtree_options, ptr %86, align 8, !tbaa !46
  %87 = load ptr, ptr %6, align 8, !tbaa !11
  %88 = getelementptr inbounds nuw %struct.archive_write, ptr %87, i32 0, i32 20
  store ptr @archive_write_mtree_header, ptr %88, align 8, !tbaa !47
  %89 = load ptr, ptr %6, align 8, !tbaa !11
  %90 = getelementptr inbounds nuw %struct.archive_write, ptr %89, i32 0, i32 22
  store ptr @archive_write_mtree_close, ptr %90, align 8, !tbaa !48
  %91 = load ptr, ptr %6, align 8, !tbaa !11
  %92 = getelementptr inbounds nuw %struct.archive_write, ptr %91, i32 0, i32 21
  store ptr @archive_write_mtree_data, ptr %92, align 8, !tbaa !49
  %93 = load ptr, ptr %6, align 8, !tbaa !11
  %94 = getelementptr inbounds nuw %struct.archive_write, ptr %93, i32 0, i32 19
  store ptr @archive_write_mtree_finish_entry, ptr %94, align 8, !tbaa !50
  %95 = load ptr, ptr %6, align 8, !tbaa !11
  %96 = getelementptr inbounds nuw %struct.archive_write, ptr %95, i32 0, i32 0
  %97 = getelementptr inbounds nuw %struct.archive, ptr %96, i32 0, i32 3
  store i32 524288, ptr %97, align 8, !tbaa !51
  %98 = load ptr, ptr %6, align 8, !tbaa !11
  %99 = getelementptr inbounds nuw %struct.archive_write, ptr %98, i32 0, i32 0
  %100 = getelementptr inbounds nuw %struct.archive, ptr %99, i32 0, i32 4
  store ptr @.str.3, ptr %100, align 8, !tbaa !52
  store i32 0, ptr %3, align 4
  store i32 1, ptr %9, align 4
  br label %101

101:                                              ; preds = %76, %37, %19
  call void @llvm.lifetime.end.p0(i64 8, ptr %7) #9
  call void @llvm.lifetime.end.p0(i64 8, ptr %6) #9
  %102 = load i32, ptr %3, align 4
  ret i32 %102
}

; Function Attrs: nounwind uwtable
define dso_local i32 @archive_write_set_format_mtree_classic(ptr noundef %0) #0 {
  %2 = alloca ptr, align 8
  %3 = alloca i32, align 4
  %4 = alloca ptr, align 8
  %5 = alloca ptr, align 8
  store ptr %0, ptr %2, align 8, !tbaa !4
  call void @llvm.lifetime.start.p0(i64 4, ptr %3) #9
  %6 = load ptr, ptr %2, align 8, !tbaa !4
  %7 = call i32 @archive_write_set_format_mtree_default(ptr noundef %6, ptr noundef @.str.1)
  store i32 %7, ptr %3, align 4, !tbaa !13
  %8 = load i32, ptr %3, align 4, !tbaa !13
  %9 = icmp eq i32 %8, 0
  br i1 %9, label %10, label %19

10:                                               ; preds = %1
  call void @llvm.lifetime.start.p0(i64 8, ptr %4) #9
  %11 = load ptr, ptr %2, align 8, !tbaa !4
  store ptr %11, ptr %4, align 8, !tbaa !11
  call void @llvm.lifetime.start.p0(i64 8, ptr %5) #9
  %12 = load ptr, ptr %4, align 8, !tbaa !11
  %13 = getelementptr inbounds nuw %struct.archive_write, ptr %12, i32 0, i32 15
  %14 = load ptr, ptr %13, align 8, !tbaa !44
  store ptr %14, ptr %5, align 8, !tbaa !23
  %15 = load ptr, ptr %5, align 8, !tbaa !23
  %16 = getelementptr inbounds nuw %struct.mtree_writer, ptr %15, i32 0, i32 11
  store i32 1, ptr %16, align 8, !tbaa !53
  %17 = load ptr, ptr %5, align 8, !tbaa !23
  %18 = getelementptr inbounds nuw %struct.mtree_writer, ptr %17, i32 0, i32 25
  store i32 1, ptr %18, align 4, !tbaa !54
  call void @llvm.lifetime.end.p0(i64 8, ptr %5) #9
  call void @llvm.lifetime.end.p0(i64 8, ptr %4) #9
  br label %19

19:                                               ; preds = %10, %1
  %20 = load i32, ptr %3, align 4, !tbaa !13
  call void @llvm.lifetime.end.p0(i64 4, ptr %3) #9
  ret i32 %20
}