; Function Attrs: nounwind uwtable
define dso_local range(i32 -30, 1) i32 @archive_write_set_format_mtree_classic(ptr noundef %0) local_unnamed_addr #0 {
  %2 = tail call i32 @__archive_check_magic(ptr noundef %0, i32 noundef -1329217314, i32 noundef 1, ptr noundef nonnull @.str.1) #14
  %.not.i = icmp eq i32 %2, -30
  br i1 %.not.i, label %archive_write_set_format_mtree_default.exit.thread, label %3

3:                                                ; preds = %1
  %4 = getelementptr inbounds nuw i8, ptr %0, i64 312
  %5 = load ptr, ptr %4, align 8, !tbaa !4
  %.not36.i = icmp eq ptr %5, null
  br i1 %.not36.i, label %8, label %6

6:                                                ; preds = %3
  %7 = tail call i32 %5(ptr noundef nonnull %0) #14
  br label %8

8:                                                ; preds = %6, %3
  %9 = tail call noalias dereferenceable_or_null(304) ptr @calloc(i64 noundef 1, i64 noundef 304) #15
  %10 = icmp eq ptr %9, null
  br i1 %10, label %11, label %12

11:                                               ; preds = %8
  tail call void (ptr, i32, ptr, ...) @archive_set_error(ptr noundef nonnull %0, i32 noundef 12, ptr noundef nonnull @.str.2) #14
  br label %archive_write_set_format_mtree_default.exit.thread

12:                                               ; preds = %8
  %13 = getelementptr inbounds nuw i8, ptr %9, i64 112
  store i32 1, ptr %13, align 8, !tbaa !17
  %14 = getelementptr inbounds nuw i8, ptr %9, i64 288
  store i32 4032058, ptr %14, align 8, !tbaa !26
  %15 = getelementptr inbounds nuw i8, ptr %9, i64 48
  %16 = getelementptr inbounds nuw i8, ptr %9, i64 56
  store ptr %15, ptr %16, align 8, !tbaa !27
  %17 = getelementptr inbounds nuw i8, ptr %0, i64 248
  store ptr %9, ptr %17, align 8, !tbaa !28
  store ptr @archive_write_mtree_free, ptr %4, align 8, !tbaa !4
  %18 = getelementptr inbounds nuw i8, ptr %0, i64 256
  store ptr @.str.3, ptr %18, align 8, !tbaa !29
  %19 = getelementptr inbounds nuw i8, ptr %0, i64 272
  store ptr @archive_write_mtree_options, ptr %19, align 8, !tbaa !30
  %20 = getelementptr inbounds nuw i8, ptr %0, i64 288
  store ptr @archive_write_mtree_header, ptr %20, align 8, !tbaa !31
  %21 = getelementptr inbounds nuw i8, ptr %0, i64 304
  store ptr @archive_write_mtree_close, ptr %21, align 8, !tbaa !32
  %22 = getelementptr inbounds nuw i8, ptr %0, i64 296
  store ptr @archive_write_mtree_data, ptr %22, align 8, !tbaa !33
  %23 = getelementptr inbounds nuw i8, ptr %0, i64 280
  store ptr @archive_write_mtree_finish_entry, ptr %23, align 8, !tbaa !34
  %24 = getelementptr inbounds nuw i8, ptr %0, i64 16
  store i32 524288, ptr %24, align 8, !tbaa !35
  %25 = getelementptr inbounds nuw i8, ptr %0, i64 24
  store ptr @.str.3, ptr %25, align 8, !tbaa !36
  %26 = getelementptr inbounds nuw i8, ptr %9, i64 216
  store i32 1, ptr %26, align 8, !tbaa !37
  %27 = getelementptr inbounds nuw i8, ptr %9, i64 300
  store i32 1, ptr %27, align 4, !tbaa !38
  br label %archive_write_set_format_mtree_default.exit.thread

archive_write_set_format_mtree_default.exit.thread: ; preds = %1, %11, %12
  %.1.i7 = phi i32 [ 0, %12 ], [ -30, %11 ], [ -30, %1 ]
  ret i32 %.1.i7
}